; Function Attrs: nounwind uwtable
define internal i32 @epm_dissect_ept_lookup_rqst(ptr noundef %0, i32 noundef %1, ptr noundef %2, ptr noundef %3, ptr noundef %4, ptr noundef %5) #0 {
  %7 = load i32, ptr @hf_epm_inquiry_type, align 4
  %8 = tail call i32 @dissect_ndr_uint32(ptr noundef %0, i32 noundef %1, ptr noundef %2, ptr noundef %3, ptr noundef %4, ptr noundef %5, i32 noundef %7, ptr noundef null) #5
  %9 = load i32, ptr @hf_epm_object, align 4
  %10 = tail call i32 @dissect_ndr_pointer(ptr noundef %0, i32 noundef %8, ptr noundef %2, ptr noundef %3, ptr noundef %4, ptr noundef %5, ptr noundef nonnull @epm_dissect_pointer_UUID, i32 noundef 3, ptr noundef nonnull @.str.140, i32 noundef %9) #5
  %11 = load i32, ptr @hf_epm_if_id, align 4
  %12 = tail call i32 @dissect_ndr_pointer(ptr noundef %0, i32 noundef %10, ptr noundef %2, ptr noundef %3, ptr noundef %4, ptr noundef %5, ptr noundef nonnull @epm_dissect_pointer_IF_ID, i32 noundef 3, ptr noundef nonnull @.str.141, i32 noundef %11) #5
  %13 = load i32, ptr @hf_epm_ver_opt, align 4
  %14 = tail call i32 @dissect_ndr_uint32(ptr noundef %0, i32 noundef %12, ptr noundef %2, ptr noundef %3, ptr noundef %4, ptr noundef %5, i32 noundef %13, ptr noundef null) #5
  %15 = load i32, ptr @hf_epm_hnd, align 4
  %16 = tail call i32 @dissect_ndr_ctx_hnd(ptr noundef %0, i32 noundef %14, ptr noundef %2, ptr noundef %3, ptr noundef %4, ptr noundef %5, i32 noundef %15, ptr noundef null) #5
  %17 = load i32, ptr @hf_epm_max_ents, align 4
  %18 = tail call i32 @dissect_ndr_uint32(ptr noundef %0, i32 noundef %16, ptr noundef %2, ptr noundef %3, ptr noundef %4, ptr noundef %5, i32 noundef %17, ptr noundef null) #5
  ret i32 %18
}